target datalayout = "e-m:e-p270:32:32-p271:32:32-p272:64:64-i64:64-i128:128-f80:128-n8:16:32:64-S128"
target triple = "x86_64-unknown-linux-gnu"

%"struct.cineon::GenericHeader" = type { i32, i32, i32, i32, i32, i32, [8 x i8], [100 x i8], [12 x i8], [12 x i8], [36 x i8], i8, i8, [2 x i8], [8 x %"struct.cineon::ImageElement"], [2 x float], [2 x float], [2 x float], [2 x float], [200 x i8], [28 x i8], i8, i8, i8, i8, i32, i32, [20 x i8], i32, i32, [100 x i8], [12 x i8], [12 x i8], [64 x i8], [32 x i8], [32 x i8], float, float, float, [40 x i8] }
%"struct.cineon::ImageElement" = type { [2 x i8], i8, i8, i32, i32, float, float, float, float }
%"class.OpenImageIO_v2_6_0::basic_string_view" = type { ptr, i64 }

@.str = private unnamed_addr constant [5 x i8] c"V4.5\00", align 1

; Function Attrs: mustprogress nounwind uwtable
define linkonce_odr noundef i64 @_ZNSt11char_traitsIcE6lengthEPKc(ptr noundef %__s) #1 comdat align 2 {
entry:
  %__s.addr = alloca ptr, align 8
  store ptr %__s, ptr %__s.addr, align 8
  %0 = load ptr, ptr %__s.addr, align 8
  %call = call i64 @strlen(ptr noundef %0) #5
  ret i64 %call
}

; Function Attrs: noreturn nounwind uwtable
define linkonce_odr hidden void @__clang_call_terminate(ptr noundef %0) #8 comdat {
  %2 = call ptr @__cxa_begin_catch(ptr %0) #5
  call void @_ZSt9terminatev() #16
  unreachable
}

; Function Attrs: mustprogress uwtable
define linkonce_odr hidden noundef i64 @_ZN18OpenImageIO_v2_6_017basic_string_viewIcSt11char_traitsIcEE8cestrlenEPKc(ptr noundef %chars) #6 comdat align 2 {
entry:
  %chars.addr = alloca ptr, align 8
  store ptr %chars, ptr %chars.addr, align 8
  %0 = load ptr, ptr %chars.addr, align 8
  %call = call noundef i64 @_ZNSt11char_traitsIcE6lengthEPKc(ptr noundef %0)
  ret i64 %call
}

; Function Attrs: mustprogress nounwind uwtable
define linkonce_odr noundef float @_ZNSt14numeric_limitsIfE8infinityEv() #1 comdat align 2 {
entry:
  ret float 0x7FF0000000000000
}

; Function Attrs: mustprogress nounwind uwtable
define linkonce_odr hidden void @_ZN18OpenImageIO_v2_6_017basic_string_viewIcSt11char_traitsIcEEC2EPKc(ptr noundef nonnull align 8 dereferenceable(16) %this, ptr noundef %chars) unnamed_addr #1 comdat align 2 personality ptr @__gxx_personality_v0 {
entry:
  %this.addr = alloca ptr, align 8
  %chars.addr = alloca ptr, align 8
  store ptr %this, ptr %this.addr, align 8
  store ptr %chars, ptr %chars.addr, align 8
  %this1 = load ptr, ptr %this.addr, align 8
  %m_chars = getelementptr inbounds %"class.OpenImageIO_v2_6_0::basic_string_view", ptr %this1, i32 0, i32 0
  %0 = load ptr, ptr %chars.addr, align 8
  store ptr %0, ptr %m_chars, align 8
  %m_len = getelementptr inbounds %"class.OpenImageIO_v2_6_0::basic_string_view", ptr %this1, i32 0, i32 1
  %1 = load ptr, ptr %chars.addr, align 8
  %tobool = icmp ne ptr %1, null
  br i1 %tobool, label %cond.true, label %cond.false

cond.true:                                        ; preds = %entry
  %2 = load ptr, ptr %chars.addr, align 8
  %call = invoke noundef i64 @_ZN18OpenImageIO_v2_6_017basic_string_viewIcSt11char_traitsIcEE8cestrlenEPKc(ptr noundef %2)
          to label %invoke.cont unwind label %terminate.lpad

invoke.cont:                                      ; preds = %cond.true
  br label %cond.end

cond.false:                                       ; preds = %entry
  br label %cond.end

cond.end:                                         ; preds = %cond.false, %invoke.cont
  %cond = phi i64 [ %call, %invoke.cont ], [ 0, %cond.false ]
  store i64 %cond, ptr %m_len, align 8
  ret void

terminate.lpad:                                   ; preds = %cond.true
  %3 = landingpad { ptr, i32 }
          catch ptr null
  %4 = extractvalue { ptr, i32 } %3, 0
  call void @__clang_call_terminate(ptr %4) #16
  unreachable
}

; Function Attrs: mustprogress nounwind uwtable
define hidden void @_ZN6cineon13GenericHeader5ResetEv(ptr noundef nonnull align 4 dereferenceable(1024) %this) #1 align 2 {
entry:
  %this.addr = alloca ptr, align 8
  %agg.tmp = alloca %"class.OpenImageIO_v2_6_0::basic_string_view", align 8
  store ptr %this, ptr %this.addr, align 8
  %this1 = load ptr, ptr %this.addr, align 8
  %magicNumber = getelementptr inbounds %"struct.cineon::GenericHeader", ptr %this1, i32 0, i32 0
  store i32 -2144706601, ptr %magicNumber, align 4
  %imageOffset = getelementptr inbounds %"struct.cineon::GenericHeader", ptr %this1, i32 0, i32 1
  store i32 -1, ptr %imageOffset, align 4
  %version = getelementptr inbounds %"struct.cineon::GenericHeader", ptr %this1, i32 0, i32 6
  %arraydecay = getelementptr inbounds [8 x i8], ptr %version, i64 0, i64 0
  call void @llvm.memset.p0.i64(ptr align 4 %arraydecay, i8 0, i64 8, i1 false)
  %version2 = getelementptr inbounds %"struct.cineon::GenericHeader", ptr %this1, i32 0, i32 6
  %arraydecay3 = getelementptr inbounds [8 x i8], ptr %version2, i64 0, i64 0
  call void @_ZN18OpenImageIO_v2_6_017basic_string_viewIcSt11char_traitsIcEEC2EPKc(ptr noundef nonnull align 8 dereferenceable(16) %agg.tmp, ptr noundef @.str) #5
  %call = call noundef ptr @_ZN18OpenImageIO_v2_6_07Strutil11safe_strcpyEPcNS_17basic_string_viewIcSt11char_traitsIcEEEm(ptr noundef %arraydecay3, ptr noundef %agg.tmp, i64 noundef 8) #5
  %fileSize = getelementptr inbounds %"struct.cineon::GenericHeader", ptr %this1, i32 0, i32 5
  store i32 2048, ptr %fileSize, align 4
  %genericSize = getelementptr inbounds %"struct.cineon::GenericHeader", ptr %this1, i32 0, i32 2
  store i32 1024, ptr %genericSize, align 4
  %industrySize = getelementptr inbounds %"struct.cineon::GenericHeader", ptr %this1, i32 0, i32 3
  store i32 1024, ptr %industrySize, align 4
  %userSize = getelementptr inbounds %"struct.cineon::GenericHeader", ptr %this1, i32 0, i32 4
  store i32 0, ptr %userSize, align 4
  %fileName = getelementptr inbounds %"struct.cineon::GenericHeader", ptr %this1, i32 0, i32 7
  %arraydecay4 = getelementptr inbounds [100 x i8], ptr %fileName, i64 0, i64 0
  call void @llvm.memset.p0.i64(ptr align 4 %arraydecay4, i8 0, i64 100, i1 false)
  %creationDate = getelementptr inbounds %"struct.cineon::GenericHeader", ptr %this1, i32 0, i32 8
  %arraydecay5 = getelementptr inbounds [12 x i8], ptr %creationDate, i64 0, i64 0
  call void @llvm.memset.p0.i64(ptr align 4 %arraydecay5, i8 0, i64 12, i1 false)
  %creationTime = getelementptr inbounds %"struct.cineon::GenericHeader", ptr %this1, i32 0, i32 9
  %arraydecay6 = getelementptr inbounds [12 x i8], ptr %creationTime, i64 0, i64 0
  call void @llvm.memset.p0.i64(ptr align 4 %arraydecay6, i8 0, i64 12, i1 false)
  %reserved1 = getelementptr inbounds %"struct.cineon::GenericHeader", ptr %this1, i32 0, i32 10
  %arraydecay7 = getelementptr inbounds [36 x i8], ptr %reserved1, i64 0, i64 0
  call void @llvm.memset.p0.i64(ptr align 4 %arraydecay7, i8 0, i64 36, i1 false)
  %imageOrientation = getelementptr inbounds %"struct.cineon::GenericHeader", ptr %this1, i32 0, i32 11
  store i8 -1, ptr %imageOrientation, align 4
  %numberOfElements = getelementptr inbounds %"struct.cineon::GenericHeader", ptr %this1, i32 0, i32 12
  store i8 -1, ptr %numberOfElements, align 1
  %unused1 = getelementptr inbounds %"struct.cineon::GenericHeader", ptr %this1, i32 0, i32 13
  %arrayidx = getelementptr inbounds [2 x i8], ptr %unused1, i64 0, i64 1
  store i8 -1, ptr %arrayidx, align 1
  %unused18 = getelementptr inbounds %"struct.cineon::GenericHeader", ptr %this1, i32 0, i32 13
  %arrayidx9 = getelementptr inbounds [2 x i8], ptr %unused18, i64 0, i64 0
  store i8 -1, ptr %arrayidx9, align 2
  %call10 = call noundef float @_ZNSt14numeric_limitsIfE8infinityEv() #5
  %whitePoint = getelementptr inbounds %"struct.cineon::GenericHeader", ptr %this1, i32 0, i32 15
  %arrayidx11 = getelementptr inbounds [2 x float], ptr %whitePoint, i64 0, i64 0
  store float %call10, ptr %arrayidx11, align 4
  %call12 = call noundef float @_ZNSt14numeric_limitsIfE8infinityEv() #5
  %whitePoint13 = getelementptr inbounds %"struct.cineon::GenericHeader", ptr %this1, i32 0, i32 15
  %arrayidx14 = getelementptr inbounds [2 x float], ptr %whitePoint13, i64 0, i64 1
  store float %call12, ptr %arrayidx14, align 4
  %call15 = call noundef float @_ZNSt14numeric_limitsIfE8infinityEv() #5
  %redPrimary = getelementptr inbounds %"struct.cineon::GenericHeader", ptr %this1, i32 0, i32 16
  %arrayidx16 = getelementptr inbounds [2 x float], ptr %redPrimary, i64 0, i64 0
  store float %call15, ptr %arrayidx16, align 4
  %call17 = call noundef float @_ZNSt14numeric_limitsIfE8infinityEv() #5
  %redPrimary18 = getelementptr inbounds %"struct.cineon::GenericHeader", ptr %this1, i32 0, i32 16
  %arrayidx19 = getelementptr inbounds [2 x float], ptr %redPrimary18, i64 0, i64 1
  store float %call17, ptr %arrayidx19, align 4
  %call20 = call noundef float @_ZNSt14numeric_limitsIfE8infinityEv() #5
  %greenPrimary = getelementptr inbounds %"struct.cineon::GenericHeader", ptr %this1, i32 0, i32 17
  %arrayidx21 = getelementptr inbounds [2 x float], ptr %greenPrimary, i64 0, i64 0
  store float %call20, ptr %arrayidx21, align 4
  %call22 = call noundef float @_ZNSt14numeric_limitsIfE8infinityEv() #5
  %greenPrimary23 = getelementptr inbounds %"struct.cineon::GenericHeader", ptr %this1, i32 0, i32 17
  %arrayidx24 = getelementptr inbounds [2 x float], ptr %greenPrimary23, i64 0, i64 1
  store float %call22, ptr %arrayidx24, align 4
  %call25 = call noundef float @_ZNSt14numeric_limitsIfE8infinityEv() #5
  %bluePrimary = getelementptr inbounds %"struct.cineon::GenericHeader", ptr %this1, i32 0, i32 18
  %arrayidx26 = getelementptr inbounds [2 x float], ptr %bluePrimary, i64 0, i64 0
  store float %call25, ptr %arrayidx26, align 4
  %call27 = call noundef float @_ZNSt14numeric_limitsIfE8infinityEv() #5
  %bluePrimary28 = getelementptr inbounds %"struct.cineon::GenericHeader", ptr %this1, i32 0, i32 18
  %arrayidx29 = getelementptr inbounds [2 x float], ptr %bluePrimary28, i64 0, i64 1
  store float %call27, ptr %arrayidx29, align 4
  %labelText = getelementptr inbounds %"struct.cineon::GenericHeader", ptr %this1, i32 0, i32 19
  %arraydecay30 = getelementptr inbounds [200 x i8], ptr %labelText, i64 0, i64 0
  call void @llvm.memset.p0.i64(ptr align 4 %arraydecay30, i8 0, i64 200, i1 false)
  %reserved2 = getelementptr inbounds %"struct.cineon::GenericHeader", ptr %this1, i32 0, i32 20
  %arraydecay31 = getelementptr inbounds [28 x i8], ptr %reserved2, i64 0, i64 0
  call void @llvm.memset.p0.i64(ptr align 4 %arraydecay31, i8 0, i64 28, i1 false)
  %interleave = getelementptr inbounds %"struct.cineon::GenericHeader", ptr %this1, i32 0, i32 21
  store i8 -1, ptr %interleave, align 4
  %packing = getelementptr inbounds %"struct.cineon::GenericHeader", ptr %this1, i32 0, i32 22
  store i8 -1, ptr %packing, align 1
  %dataSign = getelementptr inbounds %"struct.cineon::GenericHeader", ptr %this1, i32 0, i32 23
  store i8 -1, ptr %dataSign, align 2
  %imageSense = getelementptr inbounds %"struct.cineon::GenericHeader", ptr %this1, i32 0, i32 24
  store i8 -1, ptr %imageSense, align 1
  %endOfLinePadding = getelementptr inbounds %"struct.cineon::GenericHeader", ptr %this1, i32 0, i32 25
  store i32 -1, ptr %endOfLinePadding, align 4
  %endOfImagePadding = getelementptr inbounds %"struct.cineon::GenericHeader", ptr %this1, i32 0, i32 26
  store i32 -1, ptr %endOfImagePadding, align 4
  %yOffset = getelementptr inbounds %"struct.cineon::GenericHeader", ptr %this1, i32 0, i32 29
  store i32 -1, ptr %yOffset, align 4
  %xOffset = getelementptr inbounds %"struct.cineon::GenericHeader", ptr %this1, i32 0, i32 28
  store i32 -1, ptr %xOffset, align 4
  %sourceImageFileName = getelementptr inbounds %"struct.cineon::GenericHeader", ptr %this1, i32 0, i32 30
  %arraydecay32 = getelementptr inbounds [100 x i8], ptr %sourceImageFileName, i64 0, i64 0
  call void @llvm.memset.p0.i64(ptr align 4 %arraydecay32, i8 0, i64 100, i1 false)
  %sourceDate = getelementptr inbounds %"struct.cineon::GenericHeader", ptr %this1, i32 0, i32 31
  %arraydecay33 = getelementptr inbounds [12 x i8], ptr %sourceDate, i64 0, i64 0
  call void @llvm.memset.p0.i64(ptr align 4 %arraydecay33, i8 0, i64 12, i1 false)
  %sourceTime = getelementptr inbounds %"struct.cineon::GenericHeader", ptr %this1, i32 0, i32 32
  %arraydecay34 = getelementptr inbounds [12 x i8], ptr %sourceTime, i64 0, i64 0
  call void @llvm.memset.p0.i64(ptr align 4 %arraydecay34, i8 0, i64 12, i1 false)
  %inputDevice = getelementptr inbounds %"struct.cineon::GenericHeader", ptr %this1, i32 0, i32 33
  %arraydecay35 = getelementptr inbounds [64 x i8], ptr %inputDevice, i64 0, i64 0
  call void @llvm.memset.p0.i64(ptr align 4 %arraydecay35, i8 0, i64 64, i1 false)
  %inputDeviceModelNumber = getelementptr inbounds %"struct.cineon::GenericHeader", ptr %this1, i32 0, i32 34
  %arraydecay36 = getelementptr inbounds [32 x i8], ptr %inputDeviceModelNumber, i64 0, i64 0
  call void @llvm.memset.p0.i64(ptr align 4 %arraydecay36, i8 0, i64 32, i1 false)
  %inputDeviceSerialNumber = getelementptr inbounds %"struct.cineon::GenericHeader", ptr %this1, i32 0, i32 35
  %arraydecay37 = getelementptr inbounds [32 x i8], ptr %inputDeviceSerialNumber, i64 0, i64 0
  call void @llvm.memset.p0.i64(ptr align 4 %arraydecay37, i8 0, i64 32, i1 false)
  %call38 = call noundef float @_ZNSt14numeric_limitsIfE8infinityEv() #5
  %xDevicePitch = getelementptr inbounds %"struct.cineon::GenericHeader", ptr %this1, i32 0, i32 36
  store float %call38, ptr %xDevicePitch, align 4
  %call39 = call noundef float @_ZNSt14numeric_limitsIfE8infinityEv() #5
  %yDevicePitch = getelementptr inbounds %"struct.cineon::GenericHeader", ptr %this1, i32 0, i32 37
  store float %call39, ptr %yDevicePitch, align 4
  %call40 = call noundef float @_ZNSt14numeric_limitsIfE8infinityEv() #5
  %gamma = getelementptr inbounds %"struct.cineon::GenericHeader", ptr %this1, i32 0, i32 38
  store float %call40, ptr %gamma, align 4
  %reserved3 = getelementptr inbounds %"struct.cineon::GenericHeader", ptr %this1, i32 0, i32 27
  %arraydecay41 = getelementptr inbounds [20 x i8], ptr %reserved3, i64 0, i64 0
  call void @llvm.memset.p0.i64(ptr align 4 %arraydecay41, i8 0, i64 20, i1 false)
  %reserved4 = getelementptr inbounds %"struct.cineon::GenericHeader", ptr %this1, i32 0, i32 39
  %arraydecay42 = getelementptr inbounds [40 x i8], ptr %reserved4, i64 0, i64 0
  call void @llvm.memset.p0.i64(ptr align 4 %arraydecay42, i8 0, i64 40, i1 false)
  ret void
}