; Function Attrs: mustprogress nounwind uwtable
define hidden void @_ZN6cineon13GenericHeader5ResetEv(ptr noundef nonnull align 4 dereferenceable(1024) %this) local_unnamed_addr #1 align 2 personality ptr @__gxx_personality_v0 {
entry:
  %agg.tmp = alloca %"class.OpenImageIO_v2_6_0::basic_string_view", align 8
  store i32 -2144706601, ptr %this, align 4
  %imageOffset = getelementptr inbounds i8, ptr %this, i64 4
  store i32 -1, ptr %imageOffset, align 4
  %version = getelementptr inbounds i8, ptr %this, i64 24
  store i64 0, ptr %version, align 4
  store ptr @.str, ptr %agg.tmp, align 8
  %m_len.i = getelementptr inbounds i8, ptr %agg.tmp, i64 8
  store i64 4, ptr %m_len.i, align 8
  %call = call noundef ptr @_ZN18OpenImageIO_v2_6_07Strutil11safe_strcpyEPcNS_17basic_string_viewIcSt11char_traitsIcEEEm(ptr noundef nonnull %version, ptr noundef nonnull %agg.tmp, i64 noundef 8) #23
  %genericSize = getelementptr inbounds i8, ptr %this, i64 8
  store <4 x i32> <i32 1024, i32 1024, i32 0, i32 2048>, ptr %genericSize, align 4
  %fileName = getelementptr inbounds i8, ptr %this, i64 32
  %imageOrientation = getelementptr inbounds i8, ptr %this, i64 192
  call void @llvm.memset.p0.i64(ptr noundef nonnull align 4 dereferenceable(160) %fileName, i8 0, i64 160, i1 false)
  %whitePoint = getelementptr inbounds i8, ptr %this, i64 420
  store i32 -1, ptr %imageOrientation, align 4
  store <4 x float> <float 0x7FF0000000000000, float 0x7FF0000000000000, float 0x7FF0000000000000, float 0x7FF0000000000000>, ptr %whitePoint, align 4
  %greenPrimary = getelementptr inbounds i8, ptr %this, i64 436
  store <4 x float> <float 0x7FF0000000000000, float 0x7FF0000000000000, float 0x7FF0000000000000, float 0x7FF0000000000000>, ptr %greenPrimary, align 4
  %labelText = getelementptr inbounds i8, ptr %this, i64 452
  %interleave = getelementptr inbounds i8, ptr %this, i64 680
  call void @llvm.memset.p0.i64(ptr noundef nonnull align 4 dereferenceable(228) %labelText, i8 0, i64 228, i1 false)
  %yOffset = getelementptr inbounds i8, ptr %this, i64 716
  store i32 -1, ptr %yOffset, align 4
  %xOffset = getelementptr inbounds i8, ptr %this, i64 712
  store i32 -1, ptr %xOffset, align 4
  %sourceImageFileName = getelementptr inbounds i8, ptr %this, i64 720
  call void @llvm.memset.p0.i64(ptr noundef nonnull align 4 dereferenceable(12) %interleave, i8 -1, i64 12, i1 false)
  %xDevicePitch = getelementptr inbounds i8, ptr %this, i64 972
  call void @llvm.memset.p0.i64(ptr noundef nonnull align 4 dereferenceable(252) %sourceImageFileName, i8 0, i64 252, i1 false)
  store <2 x float> <float 0x7FF0000000000000, float 0x7FF0000000000000>, ptr %xDevicePitch, align 4
  %gamma = getelementptr inbounds i8, ptr %this, i64 980
  store float 0x7FF0000000000000, ptr %gamma, align 4
  %reserved3 = getelementptr inbounds i8, ptr %this, i64 692
  call void @llvm.memset.p0.i64(ptr noundef nonnull align 4 dereferenceable(20) %reserved3, i8 0, i64 20, i1 false)
  %reserved4 = getelementptr inbounds i8, ptr %this, i64 984
  call void @llvm.memset.p0.i64(ptr noundef nonnull align 4 dereferenceable(40) %reserved4, i8 0, i64 40, i1 false)
  ret void
}